target datalayout = "e-m:e-p270:32:32-p271:32:32-p272:64:64-i64:64-i128:128-f80:128-n8:16:32:64-S128"
target triple = "x86_64-unknown-linux-gnu"

%class.hilbert_basis = type <{ ptr, %class.vector, %class.svector, %class.vector.1, %class.svector.2, %class.svector.2, %class.svector.2, %class.svector.2, %class.svector.2, ptr, ptr, %"struct.hilbert_basis::stats", [4 x i8], ptr, %class.svector.4, i32, i8, i8, i8, i8 }>
%class.vector = type { ptr }
%class.svector = type { %class.vector.0 }
%class.vector.0 = type { ptr }
%class.vector.1 = type { ptr }
%class.svector.2 = type { %class.vector.3 }
%class.vector.3 = type { ptr }
%"struct.hilbert_basis::stats" = type { i32, i32, i32 }
%class.svector.4 = type { %class.vector.5 }
%class.vector.5 = type { ptr }
%"struct.hilbert_basis::offset_t" = type { i32 }
%class.checked_int64 = type { i64 }
%"class.hilbert_basis::values" = type { ptr }

; Function Attrs: mustprogress nounwind uwtable
define linkonce_odr hidden void @_ZN13hilbert_basis6valuesC2EjP13checked_int64ILb1EE(ptr noundef nonnull align 8 dereferenceable(8) %this, i32 noundef %offset, ptr noundef %v) unnamed_addr #5 comdat align 2 {
entry:
  %this.addr = alloca ptr, align 8
  %offset.addr = alloca i32, align 4
  %v.addr = alloca ptr, align 8
  store ptr %this, ptr %this.addr, align 8
  store i32 %offset, ptr %offset.addr, align 4
  store ptr %v, ptr %v.addr, align 8
  %this1 = load ptr, ptr %this.addr, align 8
  %m_values = getelementptr inbounds %"class.hilbert_basis::values", ptr %this1, i32 0, i32 0
  %0 = load ptr, ptr %v.addr, align 8
  %1 = load i32, ptr %offset.addr, align 4
  %idx.ext = zext i32 %1 to i64
  %add.ptr = getelementptr inbounds %class.checked_int64, ptr %0, i64 %idx.ext
  store ptr %add.ptr, ptr %m_values, align 8
  ret void
}

; Function Attrs: mustprogress nounwind uwtable
define linkonce_odr hidden noundef ptr @_ZNK6vectorI13checked_int64ILb1EELb1EjE4dataEv(ptr noundef nonnull align 8 dereferenceable(8) %this) #5 comdat align 2 {
entry:
  %this.addr = alloca ptr, align 8
  store ptr %this, ptr %this.addr, align 8
  %this1 = load ptr, ptr %this.addr, align 8
  %m_data = getelementptr inbounds %class.vector.1, ptr %this1, i32 0, i32 0
  %0 = load ptr, ptr %m_data, align 8
  ret ptr %0
}

; Function Attrs: mustprogress nounwind uwtable
define linkonce_odr hidden noundef i32 @_ZNK6vectorIS_I13checked_int64ILb1EELb1EjELb1EjE4sizeEv(ptr noundef nonnull align 8 dereferenceable(8) %this) #5 comdat align 2 {
entry:
  %retval = alloca i32, align 4
  %this.addr = alloca ptr, align 8
  store ptr %this, ptr %this.addr, align 8
  %this1 = load ptr, ptr %this.addr, align 8
  %m_data = getelementptr inbounds %class.vector, ptr %this1, i32 0, i32 0
  %0 = load ptr, ptr %m_data, align 8
  %cmp = icmp eq ptr %0, null
  br i1 %cmp, label %if.then, label %if.end

if.then:                                          ; preds = %entry
  store i32 0, ptr %retval, align 4
  br label %return

if.end:                                           ; preds = %entry
  %m_data2 = getelementptr inbounds %class.vector, ptr %this1, i32 0, i32 0
  %1 = load ptr, ptr %m_data2, align 8
  %arrayidx = getelementptr inbounds i32, ptr %1, i64 -1
  %2 = load i32, ptr %arrayidx, align 4
  store i32 %2, ptr %retval, align 4
  br label %return

return:                                           ; preds = %if.end, %if.then
  %3 = load i32, ptr %retval, align 4
  ret i32 %3
}

; Function Attrs: mustprogress nounwind uwtable
define linkonce_odr hidden noundef zeroext i1 @_ZNK13checked_int64ILb1EE6is_negEv(ptr noundef nonnull align 8 dereferenceable(8) %this) #5 comdat align 2 {
entry:
  %this.addr = alloca ptr, align 8
  store ptr %this, ptr %this.addr, align 8
  %this1 = load ptr, ptr %this.addr, align 8
  %m_value = getelementptr inbounds %class.checked_int64, ptr %this1, i32 0, i32 0
  %0 = load i64, ptr %m_value, align 8
  %cmp = icmp slt i64 %0, 0
  ret i1 %cmp
}

; Function Attrs: mustprogress nounwind uwtable
define linkonce_odr hidden noundef zeroext i1 @_ZNK13checked_int64ILb1EE6is_posEv(ptr noundef nonnull align 8 dereferenceable(8) %this) #5 comdat align 2 {
entry:
  %this.addr = alloca ptr, align 8
  store ptr %this, ptr %this.addr, align 8
  %this1 = load ptr, ptr %this.addr, align 8
  %m_value = getelementptr inbounds %class.checked_int64, ptr %this1, i32 0, i32 0
  %0 = load i64, ptr %m_value, align 8
  %cmp = icmp sgt i64 %0, 0
  ret i1 %cmp
}

; Function Attrs: mustprogress nounwind uwtable
define linkonce_odr hidden noundef nonnull align 8 dereferenceable(8) ptr @_ZN13hilbert_basis6values6weightEv(ptr noundef nonnull align 8 dereferenceable(8) %this) #5 comdat align 2 {
entry:
  %this.addr = alloca ptr, align 8
  store ptr %this, ptr %this.addr, align 8
  %this1 = load ptr, ptr %this.addr, align 8
  %m_values = getelementptr inbounds %"class.hilbert_basis::values", ptr %this1, i32 0, i32 0
  %0 = load ptr, ptr %m_values, align 8
  %arrayidx = getelementptr inbounds %class.checked_int64, ptr %0, i64 -1
  ret ptr %arrayidx
}

; Function Attrs: mustprogress uwtable
define hidden ptr @_ZNK13hilbert_basis3vecENS_8offset_tE(ptr noundef nonnull align 8 dereferenceable(127) %this, i32 %offs.coerce) #4 align 2 {
entry:
  %retval = alloca %"class.hilbert_basis::values", align 8
  %offs = alloca %"struct.hilbert_basis::offset_t", align 4
  %this.addr = alloca ptr, align 8
  %coerce.dive = getelementptr inbounds %"struct.hilbert_basis::offset_t", ptr %offs, i32 0, i32 0
  store i32 %offs.coerce, ptr %coerce.dive, align 4
  store ptr %this, ptr %this.addr, align 8
  %this1 = load ptr, ptr %this.addr, align 8
  %m_ineqs = getelementptr inbounds %class.hilbert_basis, ptr %this1, i32 0, i32 1
  %call = call noundef i32 @_ZNK6vectorIS_I13checked_int64ILb1EELb1EjELb1EjE4sizeEv(ptr noundef nonnull align 8 dereferenceable(8) %m_ineqs)
  %m_store = getelementptr inbounds %class.hilbert_basis, ptr %this1, i32 0, i32 3
  %call2 = call noundef ptr @_ZNK6vectorI13checked_int64ILb1EELb1EjE4dataEv(ptr noundef nonnull align 8 dereferenceable(8) %m_store)
  %m_offset = getelementptr inbounds %"struct.hilbert_basis::offset_t", ptr %offs, i32 0, i32 0
  %0 = load i32, ptr %m_offset, align 4
  %idx.ext = zext i32 %0 to i64
  %add.ptr = getelementptr inbounds %class.checked_int64, ptr %call2, i64 %idx.ext
  call void @_ZN13hilbert_basis6valuesC2EjP13checked_int64ILb1EE(ptr noundef nonnull align 8 dereferenceable(8) %retval, i32 noundef %call, ptr noundef %add.ptr)
  %coerce.dive3 = getelementptr inbounds %"class.hilbert_basis::values", ptr %retval, i32 0, i32 0
  %1 = load ptr, ptr %coerce.dive3, align 8
  ret ptr %1
}

; Function Attrs: mustprogress uwtable
define hidden noundef i32 @_ZNK13hilbert_basis8get_signENS_8offset_tE(ptr noundef nonnull align 8 dereferenceable(127) %this, i32 %idx.coerce) #4 align 2 {
entry:
  %retval = alloca i32, align 4
  %idx = alloca %"struct.hilbert_basis::offset_t", align 4
  %this.addr = alloca ptr, align 8
  %val = alloca ptr, align 8
  %ref.tmp = alloca %"class.hilbert_basis::values", align 8
  %agg.tmp = alloca %"struct.hilbert_basis::offset_t", align 4
  %coerce.dive = getelementptr inbounds %"struct.hilbert_basis::offset_t", ptr %idx, i32 0, i32 0
  store i32 %idx.coerce, ptr %coerce.dive, align 4
  store ptr %this, ptr %this.addr, align 8
  %this1 = load ptr, ptr %this.addr, align 8
  call void @llvm.memcpy.p0.p0.i64(ptr align 4 %agg.tmp, ptr align 4 %idx, i64 4, i1 false)
  %coerce.dive2 = getelementptr inbounds %"struct.hilbert_basis::offset_t", ptr %agg.tmp, i32 0, i32 0
  %0 = load i32, ptr %coerce.dive2, align 4
  %call = call ptr @_ZNK13hilbert_basis3vecENS_8offset_tE(ptr noundef nonnull align 8 dereferenceable(127) %this1, i32 %0)
  %coerce.dive3 = getelementptr inbounds %"class.hilbert_basis::values", ptr %ref.tmp, i32 0, i32 0
  store ptr %call, ptr %coerce.dive3, align 8
  %call4 = call noundef nonnull align 8 dereferenceable(8) ptr @_ZN13hilbert_basis6values6weightEv(ptr noundef nonnull align 8 dereferenceable(8) %ref.tmp)
  store ptr %call4, ptr %val, align 8
  %1 = load ptr, ptr %val, align 8
  %call5 = call noundef zeroext i1 @_ZNK13checked_int64ILb1EE6is_posEv(ptr noundef nonnull align 8 dereferenceable(8) %1)
  br i1 %call5, label %if.then, label %if.end

if.then:                                          ; preds = %entry
  store i32 0, ptr %retval, align 4
  br label %return

if.end:                                           ; preds = %entry
  %2 = load ptr, ptr %val, align 8
  %call6 = call noundef zeroext i1 @_ZNK13checked_int64ILb1EE6is_negEv(ptr noundef nonnull align 8 dereferenceable(8) %2)
  br i1 %call6, label %if.then7, label %if.end8

if.then7:                                         ; preds = %if.end
  store i32 1, ptr %retval, align 4
  br label %return

if.end8:                                          ; preds = %if.end
  store i32 2, ptr %retval, align 4
  br label %return

return:                                           ; preds = %if.end8, %if.then7, %if.then
  %3 = load i32, ptr %retval, align 4
  ret i32 %3
}