; Function Attrs: mustprogress nofree norecurse nosync nounwind willreturn memory(read, inaccessiblemem: none) uwtable
define hidden noundef i32 @_ZNK13hilbert_basis8get_signENS_8offset_tE(ptr nocapture noundef nonnull readonly align 8 dereferenceable(127) %this, i32 %idx.coerce) local_unnamed_addr #8 align 2 {
entry:
  %m_ineqs.i = getelementptr inbounds i8, ptr %this, i64 8
  %0 = load ptr, ptr %m_ineqs.i, align 8
  %cmp.i.i = icmp eq ptr %0, null
  br i1 %cmp.i.i, label %_ZNK13hilbert_basis3vecENS_8offset_tE.exit, label %if.end.i.i

if.end.i.i:                                       ; preds = %entry
  %arrayidx.i.i = getelementptr inbounds i8, ptr %0, i64 -4
  %1 = load i32, ptr %arrayidx.i.i, align 4
  %2 = zext i32 %1 to i64
  br label %_ZNK13hilbert_basis3vecENS_8offset_tE.exit

_ZNK13hilbert_basis3vecENS_8offset_tE.exit:       ; preds = %entry, %if.end.i.i
  %retval.0.i.i = phi i64 [ %2, %if.end.i.i ], [ 0, %entry ]
  %m_store.i = getelementptr inbounds i8, ptr %this, i64 24
  %3 = load ptr, ptr %m_store.i, align 8
  %idx.ext.i = zext i32 %idx.coerce to i64
  %add.ptr.i = getelementptr inbounds %class.checked_int64, ptr %3, i64 %idx.ext.i
  %add.ptr.i.i = getelementptr inbounds %class.checked_int64, ptr %add.ptr.i, i64 %retval.0.i.i
  %arrayidx.i = getelementptr inbounds i8, ptr %add.ptr.i.i, i64 -8
  %4 = load i64, ptr %arrayidx.i, align 8
  %cmp.i = icmp sgt i64 %4, 0
  %cmp.i2 = icmp slt i64 %4, 0
  %. = select i1 %cmp.i2, i32 1, i32 2
  %retval.0 = select i1 %cmp.i, i32 0, i32 %.
  ret i32 %retval.0
}